; Function Attrs: mustprogress nofree norecurse nosync nounwind willreturn memory(readwrite, inaccessiblemem: none) uwtable
define dso_local void @_ZN5ImGui21TableSetColumnEnabledEib(i32 noundef %0, i1 noundef zeroext %1) local_unnamed_addr #13 {
  %3 = zext i1 %1 to i8
  %4 = load ptr, ptr @GImGui, align 8, !tbaa !4
  %5 = getelementptr inbounds nuw i8, ptr %4, i64 8536
  %6 = load ptr, ptr %5, align 8, !tbaa !259
  %.not = icmp eq ptr %6, null
  br i1 %.not, label %17, label %7

7:                                                ; preds = %2
  %8 = icmp slt i32 %0, 0
  br i1 %8, label %9, label %12

9:                                                ; preds = %7
  %10 = getelementptr inbounds nuw i8, ptr %6, i64 116
  %11 = load i32, ptr %10, align 4, !tbaa !242
  br label %12

12:                                               ; preds = %9, %7
  %.0 = phi i32 [ %11, %9 ], [ %0, %7 ]
  %13 = getelementptr inbounds nuw i8, ptr %6, i64 24
  %14 = load ptr, ptr %13, align 8, !tbaa !271
  %15 = sext i32 %.0 to i64
  %16 = getelementptr inbounds %struct.ImGuiTableColumn, ptr %14, i64 %15, i32 29
  store i8 %3, ptr %16, align 4, !tbaa !305
  br label %17

17:                                               ; preds = %2, %12
  ret void
}